(dp0
S'left_angles'
p1
(iyumipy.yumi_state
YuMiState
p2
(dp3
S'_joint1'
p4
F-76.09
sS'_joint2'
p5
F-105.4
sS'_joint3'
p6
F52.96
sS'_joint4'
p7
F142.67
sS'_joint5'
p8
F87.31
sS'_joint6'
p9
F22.89
sS'_joint7'
p10
F70.21
sbsS'right_angles'
p11
Ns.