(dp0
S'left_angles'
p1
NsS'right_angles'
p2
(iyumipy.yumi_state
YuMiState
p3
(dp4
S'_joint1'
p5
F69.8
sS'_joint2'
p6
F-71.84
sS'_joint3'
p7
F49.2
sS'_joint4'
p8
F-118.78
sS'_joint5'
p9
F71.44
sS'_joint6'
p10
F-23.19
sS'_joint7'
p11
F-77.25
sbs.