(dp0
S'left_angles'
p1
(iyumipy.yumi_state
YuMiState
p2
(dp3
S'_joint1'
p4
F-58.31
sS'_joint2'
p5
F-106.06
sS'_joint3'
p6
F57.61
sS'_joint4'
p7
F131.01
sS'_joint5'
p8
F79.36
sS'_joint6'
p9
F59.27
sS'_joint7'
p10
F70.57
sbsS'right_angles'
p11
(iyumipy.yumi_state
YuMiState
p12
(dp13
g4
F47.76
sg5
F-74.67
sg6
F50.76
sg7
F-114.23
sg8
F61.45
sg9
F-36.95
sg10
F-72.09
sbs.