(dp0
S'left_angles'
p1
(iyumipy.yumi_state
YuMiState
p2
(dp3
S'_joint1'
p4
F-59.25
sS'_joint2'
p5
F-108.19
sS'_joint3'
p6
F59.71
sS'_joint4'
p7
F124.18
sS'_joint5'
p8
F72.96
sS'_joint6'
p9
F66.47
sS'_joint7'
p10
F70.61
sbsS'right_angles'
p11
(iyumipy.yumi_state
YuMiState
p12
(dp13
g4
F48.5
sg5
F-78.62
sg6
F48.42
sg7
F-108.38
sg8
F50.3
sg9
F-51.33
sg10
F-76.07
sbs.