(dp0
S'left_angles'
p1
(iyumipy.yumi_state
YuMiState
p2
(dp3
S'_joint1'
p4
F-53.19
sS'_joint2'
p5
F-106.96
sS'_joint3'
p6
F59.54
sS'_joint4'
p7
F116.08
sS'_joint5'
p8
F72.31
sS'_joint6'
p9
F60.27
sS'_joint7'
p10
F65.03
sbsS'right_angles'
p11
(iyumipy.yumi_state
YuMiState
p12
(dp13
g4
F43.18
sg5
F-76.64
sg6
F53.93
sg7
F-115.94
sg8
F43.89
sg9
F-41.18
sg10
F-75.48
sbs.