(dp0
S'left_angles'
p1
(iyumipy.yumi_state
YuMiState
p2
(dp3
S'_joint1'
p4
F-68.91
sS'_joint2'
p5
F-103.76
sS'_joint3'
p6
F62.91
sS'_joint4'
p7
F131.1
sS'_joint5'
p8
F80.15
sS'_joint6'
p9
F42.41
sS'_joint7'
p10
F72.02
sbsS'right_angles'
p11
(iyumipy.yumi_state
YuMiState
p12
(dp13
g4
F69.63
sg5
F-71.4
sg6
F58.87
sg7
F-131.17
sg8
F65.09
sg9
F-56.06
sg10
F-77.49
sbs.