(dp0
S'left_angles'
p1
(iyumipy.yumi_state
YuMiState
p2
(dp3
S'_joint1'
p4
F-73.8
sS'_joint2'
p5
F-105.45
sS'_joint3'
p6
F63.06
sS'_joint4'
p7
F142.64
sS'_joint5'
p8
F89.9
sS'_joint6'
p9
F26.6
sS'_joint7'
p10
F78.62
sbsS'right_angles'
p11
(iyumipy.yumi_state
YuMiState
p12
(dp13
g4
F69.84
sg5
F-72.85
sg6
F61.51
sg7
F-133.13
sg8
F67.87
sg9
F12.51
sg10
F-81.21
sbs.